; Function Attrs: cold nounwind optsize uwtable
define internal range(i32 -1094995529, 1) i32 @adx_decode_init(ptr noundef %0) #0 {
  %2 = alloca i32, align 4
  %3 = getelementptr inbounds nuw i8, ptr %0, i64 32
  %4 = load ptr, ptr %3, align 8, !tbaa !4
  call void @llvm.lifetime.start.p0(i64 4, ptr nonnull %2) #8
  %5 = getelementptr inbounds nuw i8, ptr %0, i64 80
  %6 = load i32, ptr %5, align 8, !tbaa !27
  %7 = icmp sgt i32 %6, 23
  br i1 %7, label %8, label %19

8:                                                ; preds = %1
  %9 = getelementptr inbounds nuw i8, ptr %0, i64 72
  %10 = load ptr, ptr %9, align 8, !tbaa !28
  %11 = getelementptr inbounds nuw i8, ptr %4, i64 64
  %12 = call fastcc i32 @adx_decode_header(ptr noundef nonnull %0, ptr noundef %10, i32 noundef %6, ptr noundef %2, ptr noundef nonnull %11)
  %13 = icmp slt i32 %12, 0
  br i1 %13, label %14, label %15

14:                                               ; preds = %8
  tail call void (ptr, i32, ptr, ...) @av_log(ptr noundef nonnull %0, i32 noundef 16, ptr noundef nonnull @.str.2) #8
  br label %21

15:                                               ; preds = %8
  %16 = getelementptr inbounds nuw i8, ptr %0, i64 356
  %17 = load i32, ptr %16, align 4, !tbaa !29
  store i32 %17, ptr %4, align 4, !tbaa !30
  %18 = getelementptr inbounds nuw i8, ptr %4, i64 52
  store i32 1, ptr %18, align 4, !tbaa !32
  br label %19

19:                                               ; preds = %15, %1
  %20 = getelementptr inbounds nuw i8, ptr %0, i64 348
  store i32 6, ptr %20, align 4, !tbaa !33
  br label %21

21:                                               ; preds = %19, %14
  %.0 = phi i32 [ -1094995529, %14 ], [ 0, %19 ]
  call void @llvm.lifetime.end.p0(i64 4, ptr nonnull %2) #8
  ret i32 %.0
}